; Function Attrs: mustprogress uwtable
define hidden void @_ZN3ue220getTeddyDescriptionsEPSt6vectorINS_22TeddyEngineDescriptionESaIS1_EE(ptr noundef %0) local_unnamed_addr #0 personality ptr @__gxx_personality_v0 {
  %2 = load ptr, ptr %0, align 8
  %3 = getelementptr inbounds nuw i8, ptr %0, i64 8
  %4 = load ptr, ptr %3, align 8
  %.not.i.i = icmp eq ptr %4, %2
  br i1 %.not.i.i, label %_ZNSt6vectorIN3ue222TeddyEngineDescriptionESaIS1_EE5clearEv.exit, label %.lr.ph.i.i.i.i.i

.lr.ph.i.i.i.i.i:                                 ; preds = %1, %.lr.ph.i.i.i.i.i
  %.05.i.i.i.i.i = phi ptr [ %7, %.lr.ph.i.i.i.i.i ], [ %2, %1 ]
  %5 = load ptr, ptr %.05.i.i.i.i.i, align 8
  %6 = load ptr, ptr %5, align 8
  tail call void %6(ptr noundef nonnull align 8 dereferenceable(41) %.05.i.i.i.i.i) #17
  %7 = getelementptr inbounds nuw i8, ptr %.05.i.i.i.i.i, i64 48
  %.not.i.i.i.i.i = icmp eq ptr %7, %4
  br i1 %.not.i.i.i.i.i, label %_ZSt8_DestroyIPN3ue222TeddyEngineDescriptionES1_EvT_S3_RSaIT0_E.exit.i.i, label %.lr.ph.i.i.i.i.i, !llvm.loop !7

_ZSt8_DestroyIPN3ue222TeddyEngineDescriptionES1_EvT_S3_RSaIT0_E.exit.i.i: ; preds = %.lr.ph.i.i.i.i.i
  store ptr %2, ptr %3, align 8
  br label %_ZNSt6vectorIN3ue222TeddyEngineDescriptionESaIS1_EE5clearEv.exit

_ZNSt6vectorIN3ue222TeddyEngineDescriptionESaIS1_EE5clearEv.exit: ; preds = %1, %_ZSt8_DestroyIPN3ue222TeddyEngineDescriptionES1_EvT_S3_RSaIT0_E.exit.i.i
  %8 = getelementptr inbounds nuw i8, ptr %0, i64 16
  br label %10

9:                                                ; preds = %_ZNSt6vectorIN3ue222TeddyEngineDescriptionESaIS1_EE12emplace_backIJRKNS0_14TeddyEngineDefEEEEvDpOT_.exit
  ret void

10:                                               ; preds = %_ZNSt6vectorIN3ue222TeddyEngineDescriptionESaIS1_EE5clearEv.exit, %_ZNSt6vectorIN3ue222TeddyEngineDescriptionESaIS1_EE12emplace_backIJRKNS0_14TeddyEngineDefEEEEvDpOT_.exit
  %.0.idx7 = phi i64 [ 0, %_ZNSt6vectorIN3ue222TeddyEngineDescriptionESaIS1_EE5clearEv.exit ], [ %.0.add, %_ZNSt6vectorIN3ue222TeddyEngineDescriptionESaIS1_EE12emplace_backIJRKNS0_14TeddyEngineDefEEEEvDpOT_.exit ]
  %.0.ptr = getelementptr inbounds nuw i8, ptr @_ZZN3ue220getTeddyDescriptionsEPSt6vectorINS_22TeddyEngineDescriptionESaIS1_EEE5defns, i64 %.0.idx7
  %11 = load ptr, ptr %3, align 8
  %12 = load ptr, ptr %8, align 8
  %.not.i = icmp eq ptr %11, %12
  br i1 %.not.i, label %33, label %13

13:                                               ; preds = %10
  %14 = load i32, ptr %.0.ptr, align 16
  %15 = getelementptr inbounds nuw i8, ptr %.0.ptr, i64 8
  %16 = load i64, ptr %15, align 8
  %17 = tail call { i32, i64 } @_ZN3ue220targetByArchFeaturesEy(i64 noundef %16)
  %18 = extractvalue { i32, i64 } %17, 0
  %19 = extractvalue { i32, i64 } %17, 1
  %20 = getelementptr inbounds nuw i8, ptr %.0.ptr, i64 20
  %21 = load i32, ptr %20, align 4
  %22 = getelementptr inbounds nuw i8, ptr %11, i64 8
  store i32 %14, ptr %22, align 8
  %23 = getelementptr inbounds nuw i8, ptr %11, i64 16
  store i32 %18, ptr %23, align 8
  %.sroa.46.0..sroa_idx.i.i.i.i = getelementptr inbounds nuw i8, ptr %11, i64 24
  store i64 %19, ptr %.sroa.46.0..sroa_idx.i.i.i.i, align 8
  %24 = getelementptr inbounds nuw i8, ptr %11, i64 32
  store i32 %21, ptr %24, align 8
  store ptr getelementptr inbounds nuw inrange(-16, 24) (i8, ptr @_ZTVN3ue222TeddyEngineDescriptionE, i64 16), ptr %11, align 8
  %25 = getelementptr inbounds nuw i8, ptr %11, i64 36
  %26 = getelementptr inbounds nuw i8, ptr %.0.ptr, i64 16
  %27 = load i32, ptr %26, align 16
  store i32 %27, ptr %25, align 4
  %28 = getelementptr inbounds nuw i8, ptr %11, i64 40
  %29 = getelementptr inbounds nuw i8, ptr %.0.ptr, i64 24
  %30 = load i8, ptr %29, align 8, !range !5, !noundef !6
  store i8 %30, ptr %28, align 8
  %31 = load ptr, ptr %3, align 8
  %32 = getelementptr inbounds nuw i8, ptr %31, i64 48
  store ptr %32, ptr %3, align 8
  br label %_ZNSt6vectorIN3ue222TeddyEngineDescriptionESaIS1_EE12emplace_backIJRKNS0_14TeddyEngineDefEEEEvDpOT_.exit

33:                                               ; preds = %10
  tail call void @_ZNSt6vectorIN3ue222TeddyEngineDescriptionESaIS1_EE17_M_realloc_insertIJRKNS0_14TeddyEngineDefEEEEvN9__gnu_cxx17__normal_iteratorIPS1_S3_EEDpOT_(ptr noundef nonnull align 8 dereferenceable(24) %0, ptr %11, ptr noundef nonnull align 8 dereferenceable(32) %.0.ptr)
  br label %_ZNSt6vectorIN3ue222TeddyEngineDescriptionESaIS1_EE12emplace_backIJRKNS0_14TeddyEngineDefEEEEvDpOT_.exit

_ZNSt6vectorIN3ue222TeddyEngineDescriptionESaIS1_EE12emplace_backIJRKNS0_14TeddyEngineDefEEEEvDpOT_.exit: ; preds = %13, %33
  %.0.add = add nuw nsw i64 %.0.idx7, 32
  %.not = icmp eq i64 %.0.add, 512
  br i1 %.not, label %9, label %10
}